; Function Attrs: mustprogress nounwind uwtable
define hidden void @_ZN5zxing6qrcode8ECBlocksD2Ev(ptr nocapture noundef nonnull readonly align 8 dereferenceable(32) %0) unnamed_addr #4 align 2 personality ptr @__gxx_personality_v0 {
  %2 = getelementptr inbounds i8, ptr %0, i64 8
  %3 = getelementptr inbounds i8, ptr %0, i64 16
  %4 = load ptr, ptr %3, align 8
  %5 = load ptr, ptr %2, align 8
  %.not = icmp eq ptr %4, %5
  br i1 %.not, label %._crit_edge, label %.lr.ph

.lr.ph:                                           ; preds = %1, %12
  %6 = phi ptr [ %13, %12 ], [ %5, %1 ]
  %7 = phi ptr [ %14, %12 ], [ %4, %1 ]
  %.04 = phi i64 [ %15, %12 ], [ 0, %1 ]
  %8 = getelementptr inbounds ptr, ptr %6, i64 %.04
  %9 = load ptr, ptr %8, align 8
  %10 = icmp eq ptr %9, null
  br i1 %10, label %12, label %11

11:                                               ; preds = %.lr.ph
  tail call void @_ZdlPv(ptr noundef nonnull %9) #17
  %.pre = load ptr, ptr %3, align 8
  %.pre6 = load ptr, ptr %2, align 8
  br label %12

12:                                               ; preds = %.lr.ph, %11
  %13 = phi ptr [ %6, %.lr.ph ], [ %.pre6, %11 ]
  %14 = phi ptr [ %7, %.lr.ph ], [ %.pre, %11 ]
  %15 = add nuw i64 %.04, 1
  %16 = ptrtoint ptr %14 to i64
  %17 = ptrtoint ptr %13 to i64
  %18 = sub i64 %16, %17
  %19 = ashr exact i64 %18, 3
  %20 = icmp ult i64 %15, %19
  br i1 %20, label %.lr.ph, label %._crit_edge, !llvm.loop !4

._crit_edge:                                      ; preds = %12, %1
  %.lcssa = phi ptr [ %5, %1 ], [ %13, %12 ]
  %.not.i.i.i = icmp eq ptr %.lcssa, null
  br i1 %.not.i.i.i, label %_ZNSt6vectorIPN5zxing6qrcode3ECBESaIS3_EED2Ev.exit, label %21

21:                                               ; preds = %._crit_edge
  tail call void @_ZdlPv(ptr noundef nonnull %.lcssa) #17
  br label %_ZNSt6vectorIPN5zxing6qrcode3ECBESaIS3_EED2Ev.exit

_ZNSt6vectorIPN5zxing6qrcode3ECBESaIS3_EED2Ev.exit: ; preds = %._crit_edge, %21
  ret void
}